target datalayout = "e-m:e-p270:32:32-p271:32:32-p272:64:64-i64:64-i128:128-f80:128-n8:16:32:64-S128"
target triple = "x86_64-unknown-linux-gnu"

%struct.aiString = type { i32, [1024 x i8] }
%struct.aiMaterialProperty = type { %struct.aiString, i32, i32, i32, i32, ptr }
%struct.aiMaterial = type { ptr, i32, i32 }

@.str.2 = private unnamed_addr constant [35 x i8] c"Magic chunk identifiers are wrong!\00", align 1
@_ZTI17DeadlyImportError = linkonce_odr constant { ptr, ptr, ptr } { ptr getelementptr inbounds (ptr, ptr @_ZTVN10__cxxabiv120__si_class_type_infoE, i64 2), ptr @_ZTS17DeadlyImportError, ptr @_ZTI15DeadlyErrorBase }, comdat, align 8
@.str.13 = private unnamed_addr constant [15 x i8] c"Unexpected EOF\00", align 1

; Function Attrs: mustprogress nounwind uwtable
define linkonce_odr hidden void @_ZN8aiStringC2Ev(ptr noundef nonnull align 4 dereferenceable(1028) %this) unnamed_addr #0 comdat align 2 {
entry:
  %this.addr = alloca ptr, align 8
  store ptr %this, ptr %this.addr, align 8
  %this1 = load ptr, ptr %this.addr, align 8
  %length = getelementptr inbounds %struct.aiString, ptr %this1, i32 0, i32 0
  store i32 0, ptr %length, align 4
  %data = getelementptr inbounds %struct.aiString, ptr %this1, i32 0, i32 1
  %arrayidx = getelementptr inbounds [1024 x i8], ptr %data, i64 0, i64 0
  store i8 0, ptr %arrayidx, align 4
  ret void
}

; Function Attrs: mustprogress nounwind uwtable
define linkonce_odr hidden void @_ZN18aiMaterialPropertyC2Ev(ptr noundef nonnull align 8 dereferenceable(1056) %this) unnamed_addr #0 comdat align 2 {
entry:
  %this.addr = alloca ptr, align 8
  store ptr %this, ptr %this.addr, align 8
  %this1 = load ptr, ptr %this.addr, align 8
  %mKey = getelementptr inbounds %struct.aiMaterialProperty, ptr %this1, i32 0, i32 0
  call void @_ZN8aiStringC2Ev(ptr noundef nonnull align 4 dereferenceable(1028) %mKey) #15
  %mSemantic = getelementptr inbounds %struct.aiMaterialProperty, ptr %this1, i32 0, i32 1
  store i32 0, ptr %mSemantic, align 4
  %mIndex = getelementptr inbounds %struct.aiMaterialProperty, ptr %this1, i32 0, i32 2
  store i32 0, ptr %mIndex, align 8
  %mDataLength = getelementptr inbounds %struct.aiMaterialProperty, ptr %this1, i32 0, i32 3
  store i32 0, ptr %mDataLength, align 4
  %mType = getelementptr inbounds %struct.aiMaterialProperty, ptr %this1, i32 0, i32 4
  store i32 1, ptr %mType, align 8
  %mData = getelementptr inbounds %struct.aiMaterialProperty, ptr %this1, i32 0, i32 5
  store ptr null, ptr %mData, align 8
  ret void
}

; Function Attrs: mustprogress uwtable
define linkonce_odr hidden noundef i32 @_Z4ReadIjET_PN6Assimp8IOStreamE(ptr noundef %stream) #2 comdat personality ptr @__gxx_personality_v0 {
entry:
  %stream.addr = alloca ptr, align 8
  %t = alloca i32, align 4
  %res = alloca i64, align 8
  %exn.slot = alloca ptr, align 8
  %ehselector.slot = alloca i32, align 4
  store ptr %stream, ptr %stream.addr, align 8
  %0 = load ptr, ptr %stream.addr, align 8
  %vtable = load ptr, ptr %0, align 8
  %vfn = getelementptr inbounds ptr, ptr %vtable, i64 2
  %1 = load ptr, ptr %vfn, align 8
  %call = call noundef i64 %1(ptr noundef nonnull align 8 dereferenceable(8) %0, ptr noundef %t, i64 noundef 4, i64 noundef 1)
  store i64 %call, ptr %res, align 8
  %2 = load i64, ptr %res, align 8
  %cmp = icmp ne i64 %2, 1
  br i1 %cmp, label %if.then, label %if.end

if.then:                                          ; preds = %entry
  %exception = call ptr @__cxa_allocate_exception(i64 16) #15
  invoke void @_ZN17DeadlyImportErrorC2EPKc(ptr noundef nonnull align 8 dereferenceable(16) %exception, ptr noundef @.str.13)
          to label %invoke.cont unwind label %lpad

invoke.cont:                                      ; preds = %if.then
  call void @__cxa_throw(ptr %exception, ptr @_ZTI17DeadlyImportError, ptr @_ZN17DeadlyImportErrorD2Ev) #17
  unreachable

lpad:                                             ; preds = %if.then
  %3 = landingpad { ptr, i32 }
          cleanup
  %4 = extractvalue { ptr, i32 } %3, 0
  store ptr %4, ptr %exn.slot, align 8
  %5 = extractvalue { ptr, i32 } %3, 1
  store i32 %5, ptr %ehselector.slot, align 4
  call void @__cxa_free_exception(ptr %exception) #15
  br label %eh.resume

if.end:                                           ; preds = %entry
  %6 = load i32, ptr %t, align 4
  ret i32 %6

eh.resume:                                        ; preds = %lpad
  %exn = load ptr, ptr %exn.slot, align 8
  %sel = load i32, ptr %ehselector.slot, align 4
  %lpad.val = insertvalue { ptr, i32 } poison, ptr %exn, 0
  %lpad.val1 = insertvalue { ptr, i32 } %lpad.val, i32 %sel, 1
  resume { ptr, i32 } %lpad.val1
}

; Function Attrs: mustprogress uwtable
define hidden void @_ZN6Assimp14AssbinImporter18ReadBinaryMaterialEPNS_8IOStreamEP10aiMaterial(ptr noundef nonnull align 8 dereferenceable(74) %this, ptr noundef %stream, ptr noundef %mat) #2 align 2 personality ptr @__gxx_personality_v0 {
entry:
  %this.addr = alloca ptr, align 8
  %stream.addr = alloca ptr, align 8
  %mat.addr = alloca ptr, align 8
  %exn.slot = alloca ptr, align 8
  %ehselector.slot = alloca i32, align 4
  %i = alloca i32, align 4
  store ptr %this, ptr %this.addr, align 8
  store ptr %stream, ptr %stream.addr, align 8
  store ptr %mat, ptr %mat.addr, align 8
  %this1 = load ptr, ptr %this.addr, align 8
  %0 = load ptr, ptr %stream.addr, align 8
  %call = call noundef i32 @_Z4ReadIjET_PN6Assimp8IOStreamE(ptr noundef %0)
  %cmp = icmp ne i32 %call, 4669
  br i1 %cmp, label %if.then, label %if.end

if.then:                                          ; preds = %entry
  %exception = call ptr @__cxa_allocate_exception(i64 16) #15
  invoke void @_ZN17DeadlyImportErrorC2EPKc(ptr noundef nonnull align 8 dereferenceable(16) %exception, ptr noundef @.str.2)
          to label %invoke.cont unwind label %lpad

invoke.cont:                                      ; preds = %if.then
  call void @__cxa_throw(ptr %exception, ptr @_ZTI17DeadlyImportError, ptr @_ZN17DeadlyImportErrorD2Ev) #17
  unreachable

lpad:                                             ; preds = %if.then
  %1 = landingpad { ptr, i32 }
          cleanup
  %2 = extractvalue { ptr, i32 } %1, 0
  store ptr %2, ptr %exn.slot, align 8
  %3 = extractvalue { ptr, i32 } %1, 1
  store i32 %3, ptr %ehselector.slot, align 4
  call void @__cxa_free_exception(ptr %exception) #15
  br label %eh.resume

if.end:                                           ; preds = %entry
  %4 = load ptr, ptr %stream.addr, align 8
  %call2 = call noundef i32 @_Z4ReadIjET_PN6Assimp8IOStreamE(ptr noundef %4)
  %5 = load ptr, ptr %stream.addr, align 8
  %call3 = call noundef i32 @_Z4ReadIjET_PN6Assimp8IOStreamE(ptr noundef %5)
  %6 = load ptr, ptr %mat.addr, align 8
  %mNumProperties = getelementptr inbounds %struct.aiMaterial, ptr %6, i32 0, i32 1
  store i32 %call3, ptr %mNumProperties, align 8
  %7 = load ptr, ptr %mat.addr, align 8
  %mNumAllocated = getelementptr inbounds %struct.aiMaterial, ptr %7, i32 0, i32 2
  store i32 %call3, ptr %mNumAllocated, align 4
  %8 = load ptr, ptr %mat.addr, align 8
  %mNumProperties4 = getelementptr inbounds %struct.aiMaterial, ptr %8, i32 0, i32 1
  %9 = load i32, ptr %mNumProperties4, align 8
  %tobool = icmp ne i32 %9, 0
  br i1 %tobool, label %if.then5, label %if.end20

if.then5:                                         ; preds = %if.end
  %10 = load ptr, ptr %mat.addr, align 8
  %mProperties = getelementptr inbounds %struct.aiMaterial, ptr %10, i32 0, i32 0
  %11 = load ptr, ptr %mProperties, align 8
  %tobool6 = icmp ne ptr %11, null
  br i1 %tobool6, label %if.then7, label %if.end9

if.then7:                                         ; preds = %if.then5
  %12 = load ptr, ptr %mat.addr, align 8
  %mProperties8 = getelementptr inbounds %struct.aiMaterial, ptr %12, i32 0, i32 0
  %13 = load ptr, ptr %mProperties8, align 8
  %isnull = icmp eq ptr %13, null
  br i1 %isnull, label %delete.end, label %delete.notnull

delete.notnull:                                   ; preds = %if.then7
  call void @_ZdaPv(ptr noundef %13) #19
  br label %delete.end

delete.end:                                       ; preds = %delete.notnull, %if.then7
  br label %if.end9

if.end9:                                          ; preds = %delete.end, %if.then5
  %14 = load ptr, ptr %mat.addr, align 8
  %mNumProperties10 = getelementptr inbounds %struct.aiMaterial, ptr %14, i32 0, i32 1
  %15 = load i32, ptr %mNumProperties10, align 8
  %conv = zext i32 %15 to i64
  %16 = call { i64, i1 } @llvm.umul.with.overflow.i64(i64 %conv, i64 8)
  %17 = extractvalue { i64, i1 } %16, 1
  %18 = extractvalue { i64, i1 } %16, 0
  %19 = select i1 %17, i64 -1, i64 %18
  %call11 = call noalias noundef nonnull ptr @_Znam(i64 noundef %19) #18
  %20 = load ptr, ptr %mat.addr, align 8
  %mProperties12 = getelementptr inbounds %struct.aiMaterial, ptr %20, i32 0, i32 0
  store ptr %call11, ptr %mProperties12, align 8
  store i32 0, ptr %i, align 4
  br label %for.cond

for.cond:                                         ; preds = %for.inc, %if.end9
  %21 = load i32, ptr %i, align 4
  %22 = load ptr, ptr %mat.addr, align 8
  %mNumProperties13 = getelementptr inbounds %struct.aiMaterial, ptr %22, i32 0, i32 1
  %23 = load i32, ptr %mNumProperties13, align 8
  %cmp14 = icmp ult i32 %21, %23
  br i1 %cmp14, label %for.body, label %for.end

for.body:                                         ; preds = %for.cond
  %call15 = call noalias noundef nonnull ptr @_Znwm(i64 noundef 1056) #18
  call void @_ZN18aiMaterialPropertyC2Ev(ptr noundef nonnull align 8 dereferenceable(1056) %call15) #15
  %24 = load ptr, ptr %mat.addr, align 8
  %mProperties16 = getelementptr inbounds %struct.aiMaterial, ptr %24, i32 0, i32 0
  %25 = load ptr, ptr %mProperties16, align 8
  %26 = load i32, ptr %i, align 4
  %idxprom = zext i32 %26 to i64
  %arrayidx = getelementptr inbounds ptr, ptr %25, i64 %idxprom
  store ptr %call15, ptr %arrayidx, align 8
  %27 = load ptr, ptr %stream.addr, align 8
  %28 = load ptr, ptr %mat.addr, align 8
  %mProperties17 = getelementptr inbounds %struct.aiMaterial, ptr %28, i32 0, i32 0
  %29 = load ptr, ptr %mProperties17, align 8
  %30 = load i32, ptr %i, align 4
  %idxprom18 = zext i32 %30 to i64
  %arrayidx19 = getelementptr inbounds ptr, ptr %29, i64 %idxprom18
  %31 = load ptr, ptr %arrayidx19, align 8
  call void @_ZN6Assimp14AssbinImporter26ReadBinaryMaterialPropertyEPNS_8IOStreamEP18aiMaterialProperty(ptr noundef nonnull align 8 dereferenceable(74) %this1, ptr noundef %27, ptr noundef %31)
  br label %for.inc

for.inc:                                          ; preds = %for.body
  %32 = load i32, ptr %i, align 4
  %inc = add i32 %32, 1
  store i32 %inc, ptr %i, align 4
  br label %for.cond, !llvm.loop !18

for.end:                                          ; preds = %for.cond
  br label %if.end20

if.end20:                                         ; preds = %for.end, %if.end
  ret void

eh.resume:                                        ; preds = %lpad
  %exn = load ptr, ptr %exn.slot, align 8
  %sel = load i32, ptr %ehselector.slot, align 4
  %lpad.val = insertvalue { ptr, i32 } poison, ptr %exn, 0
  %lpad.val21 = insertvalue { ptr, i32 } %lpad.val, i32 %sel, 1
  resume { ptr, i32 } %lpad.val21
}