; Function Attrs: mustprogress uwtable
define hidden void @_ZN6Assimp14AssbinImporter18ReadBinaryMaterialEPNS_8IOStreamEP10aiMaterial(ptr nocapture nonnull readnone align 8 %this, ptr noundef %stream, ptr nocapture noundef %mat) local_unnamed_addr #1 align 2 personality ptr @__gxx_personality_v0 {
entry:
  %t.i26 = alloca i32, align 4
  %t.i16 = alloca i32, align 4
  %t.i = alloca i32, align 4
  call void @llvm.lifetime.start.p0(i64 4, ptr nonnull %t.i)
  %vtable.i = load ptr, ptr %stream, align 8
  %vfn.i = getelementptr inbounds i8, ptr %vtable.i, i64 16
  %0 = load ptr, ptr %vfn.i, align 8
  %call.i = call noundef i64 %0(ptr noundef nonnull align 8 dereferenceable(8) %stream, ptr noundef nonnull %t.i, i64 noundef 4, i64 noundef 1)
  %cmp.not.i = icmp eq i64 %call.i, 1
  br i1 %cmp.not.i, label %_Z4ReadIjET_PN6Assimp8IOStreamE.exit, label %if.then.i

if.then.i:                                        ; preds = %entry
  %exception.i = call ptr @__cxa_allocate_exception(i64 16) #15
  invoke void @_ZN17DeadlyImportErrorC2EPKc(ptr noundef nonnull align 8 dereferenceable(16) %exception.i, ptr noundef nonnull @.str.13)
          to label %invoke.cont.i unwind label %lpad.i

invoke.cont.i:                                    ; preds = %if.then.i
  call void @__cxa_throw(ptr nonnull %exception.i, ptr nonnull @_ZTI17DeadlyImportError, ptr nonnull @_ZN17DeadlyImportErrorD2Ev) #16
  unreachable

common.resume:                                    ; preds = %lpad.i33, %lpad.i23, %lpad, %lpad.i
  %exception.i32.sink = phi ptr [ %exception.i32, %lpad.i33 ], [ %exception.i22, %lpad.i23 ], [ %exception, %lpad ], [ %exception.i, %lpad.i ]
  %common.resume.op = phi { ptr, i32 } [ %7, %lpad.i33 ], [ %5, %lpad.i23 ], [ %3, %lpad ], [ %1, %lpad.i ]
  call void @__cxa_free_exception(ptr %exception.i32.sink) #15
  resume { ptr, i32 } %common.resume.op

lpad.i:                                           ; preds = %if.then.i
  %1 = landingpad { ptr, i32 }
          cleanup
  br label %common.resume

_Z4ReadIjET_PN6Assimp8IOStreamE.exit:             ; preds = %entry
  %2 = load i32, ptr %t.i, align 4
  call void @llvm.lifetime.end.p0(i64 4, ptr nonnull %t.i)
  %cmp.not = icmp eq i32 %2, 4669
  br i1 %cmp.not, label %if.end, label %if.then

if.then:                                          ; preds = %_Z4ReadIjET_PN6Assimp8IOStreamE.exit
  %exception = call ptr @__cxa_allocate_exception(i64 16) #15
  invoke void @_ZN17DeadlyImportErrorC2EPKc(ptr noundef nonnull align 8 dereferenceable(16) %exception, ptr noundef nonnull @.str.2)
          to label %invoke.cont unwind label %lpad

invoke.cont:                                      ; preds = %if.then
  call void @__cxa_throw(ptr nonnull %exception, ptr nonnull @_ZTI17DeadlyImportError, ptr nonnull @_ZN17DeadlyImportErrorD2Ev) #16
  unreachable

lpad:                                             ; preds = %if.then
  %3 = landingpad { ptr, i32 }
          cleanup
  br label %common.resume

if.end:                                           ; preds = %_Z4ReadIjET_PN6Assimp8IOStreamE.exit
  call void @llvm.lifetime.start.p0(i64 4, ptr nonnull %t.i16)
  %vtable.i17 = load ptr, ptr %stream, align 8
  %vfn.i18 = getelementptr inbounds i8, ptr %vtable.i17, i64 16
  %4 = load ptr, ptr %vfn.i18, align 8
  %call.i19 = call noundef i64 %4(ptr noundef nonnull align 8 dereferenceable(8) %stream, ptr noundef nonnull %t.i16, i64 noundef 4, i64 noundef 1)
  %cmp.not.i20 = icmp eq i64 %call.i19, 1
  br i1 %cmp.not.i20, label %_Z4ReadIjET_PN6Assimp8IOStreamE.exit25, label %if.then.i21

if.then.i21:                                      ; preds = %if.end
  %exception.i22 = call ptr @__cxa_allocate_exception(i64 16) #15
  invoke void @_ZN17DeadlyImportErrorC2EPKc(ptr noundef nonnull align 8 dereferenceable(16) %exception.i22, ptr noundef nonnull @.str.13)
          to label %invoke.cont.i24 unwind label %lpad.i23

invoke.cont.i24:                                  ; preds = %if.then.i21
  call void @__cxa_throw(ptr nonnull %exception.i22, ptr nonnull @_ZTI17DeadlyImportError, ptr nonnull @_ZN17DeadlyImportErrorD2Ev) #16
  unreachable

lpad.i23:                                         ; preds = %if.then.i21
  %5 = landingpad { ptr, i32 }
          cleanup
  br label %common.resume

_Z4ReadIjET_PN6Assimp8IOStreamE.exit25:           ; preds = %if.end
  call void @llvm.lifetime.end.p0(i64 4, ptr nonnull %t.i16)
  call void @llvm.lifetime.start.p0(i64 4, ptr nonnull %t.i26)
  %vtable.i27 = load ptr, ptr %stream, align 8
  %vfn.i28 = getelementptr inbounds i8, ptr %vtable.i27, i64 16
  %6 = load ptr, ptr %vfn.i28, align 8
  %call.i29 = call noundef i64 %6(ptr noundef nonnull align 8 dereferenceable(8) %stream, ptr noundef nonnull %t.i26, i64 noundef 4, i64 noundef 1)
  %cmp.not.i30 = icmp eq i64 %call.i29, 1
  br i1 %cmp.not.i30, label %_Z4ReadIjET_PN6Assimp8IOStreamE.exit35, label %if.then.i31

if.then.i31:                                      ; preds = %_Z4ReadIjET_PN6Assimp8IOStreamE.exit25
  %exception.i32 = call ptr @__cxa_allocate_exception(i64 16) #15
  invoke void @_ZN17DeadlyImportErrorC2EPKc(ptr noundef nonnull align 8 dereferenceable(16) %exception.i32, ptr noundef nonnull @.str.13)
          to label %invoke.cont.i34 unwind label %lpad.i33

invoke.cont.i34:                                  ; preds = %if.then.i31
  call void @__cxa_throw(ptr nonnull %exception.i32, ptr nonnull @_ZTI17DeadlyImportError, ptr nonnull @_ZN17DeadlyImportErrorD2Ev) #16
  unreachable

lpad.i33:                                         ; preds = %if.then.i31
  %7 = landingpad { ptr, i32 }
          cleanup
  br label %common.resume

_Z4ReadIjET_PN6Assimp8IOStreamE.exit35:           ; preds = %_Z4ReadIjET_PN6Assimp8IOStreamE.exit25
  %8 = load i32, ptr %t.i26, align 4
  call void @llvm.lifetime.end.p0(i64 4, ptr nonnull %t.i26)
  %mNumProperties = getelementptr inbounds i8, ptr %mat, i64 8
  store i32 %8, ptr %mNumProperties, align 8
  %mNumAllocated = getelementptr inbounds i8, ptr %mat, i64 12
  store i32 %8, ptr %mNumAllocated, align 4
  %tobool.not = icmp eq i32 %8, 0
  br i1 %tobool.not, label %if.end20, label %if.then5

if.then5:                                         ; preds = %_Z4ReadIjET_PN6Assimp8IOStreamE.exit35
  %9 = load ptr, ptr %mat, align 8
  %tobool6.not = icmp eq ptr %9, null
  br i1 %tobool6.not, label %if.end9, label %delete.notnull

delete.notnull:                                   ; preds = %if.then5
  call void @_ZdaPv(ptr noundef nonnull %9) #18
  %.pre = load i32, ptr %mNumProperties, align 8
  br label %if.end9

if.end9:                                          ; preds = %delete.notnull, %if.then5
  %10 = phi i32 [ %.pre, %delete.notnull ], [ %8, %if.then5 ]
  %conv = zext i32 %10 to i64
  %11 = shl nuw nsw i64 %conv, 3
  %call11 = call noalias noundef nonnull ptr @_Znam(i64 noundef %11) #17
  store ptr %call11, ptr %mat, align 8
  %cmp1436.not = icmp eq i32 %10, 0
  br i1 %cmp1436.not, label %if.end20, label %for.body

for.body:                                         ; preds = %if.end9, %for.body
  %indvars.iv = phi i64 [ %indvars.iv.next, %for.body ], [ 0, %if.end9 ]
  %call15 = call noalias noundef nonnull dereferenceable(1056) ptr @_Znwm(i64 noundef 1056) #17
  store i32 0, ptr %call15, align 4
  %data.i.i = getelementptr inbounds i8, ptr %call15, i64 4
  store i8 0, ptr %data.i.i, align 4
  %mSemantic.i = getelementptr inbounds i8, ptr %call15, i64 1028
  store <4 x i32> <i32 0, i32 0, i32 0, i32 1>, ptr %mSemantic.i, align 4
  %mData.i = getelementptr inbounds i8, ptr %call15, i64 1048
  store ptr null, ptr %mData.i, align 8
  %12 = load ptr, ptr %mat, align 8
  %arrayidx = getelementptr inbounds ptr, ptr %12, i64 %indvars.iv
  store ptr %call15, ptr %arrayidx, align 8
  %13 = load ptr, ptr %mat, align 8
  %arrayidx19 = getelementptr inbounds ptr, ptr %13, i64 %indvars.iv
  %14 = load ptr, ptr %arrayidx19, align 8
  call void @_ZN6Assimp14AssbinImporter26ReadBinaryMaterialPropertyEPNS_8IOStreamEP18aiMaterialProperty(ptr nonnull align 8 poison, ptr noundef nonnull %stream, ptr noundef %14)
  %indvars.iv.next = add nuw nsw i64 %indvars.iv, 1
  %15 = load i32, ptr %mNumProperties, align 8
  %16 = zext i32 %15 to i64
  %cmp14 = icmp ult i64 %indvars.iv.next, %16
  br i1 %cmp14, label %for.body, label %if.end20, !llvm.loop !33

if.end20:                                         ; preds = %for.body, %if.end9, %_Z4ReadIjET_PN6Assimp8IOStreamE.exit35
  ret void
}